; Function Attrs: nounwind uwtable
define internal noundef ptr @lxb_html_tokenizer_state_rcdata_end_tag_open(ptr nocapture noundef %0, ptr noundef %1, ptr noundef readnone %2) #1 {
  %4 = load i8, ptr %1, align 1
  %5 = zext i8 %4 to i64
  %6 = getelementptr inbounds [256 x i64], ptr @lexbor_str_res_alpha_character, i64 0, i64 %5
  %7 = load i64, ptr %6, align 8
  %.not = icmp eq i64 %7, 255
  br i1 %.not, label %._crit_edge, label %8

._crit_edge:                                      ; preds = %3
  %.phi.trans.insert = getelementptr inbounds i8, ptr %0, i64 136
  %.pre = load ptr, ptr %.phi.trans.insert, align 8
  br label %19

8:                                                ; preds = %3
  %9 = getelementptr inbounds i8, ptr %0, i64 112
  store ptr %1, ptr %9, align 8
  %10 = getelementptr inbounds i8, ptr %0, i64 136
  %11 = load ptr, ptr %10, align 8
  %12 = getelementptr inbounds i8, ptr %11, i64 -1
  %13 = getelementptr inbounds i8, ptr %0, i64 128
  %14 = load ptr, ptr %13, align 8
  %15 = ptrtoint ptr %12 to i64
  %16 = ptrtoint ptr %14 to i64
  %17 = sub i64 %15, %16
  %18 = getelementptr inbounds i8, ptr %0, i64 200
  store i64 %17, ptr %18, align 8
  br label %19

19:                                               ; preds = %._crit_edge, %8
  %20 = phi ptr [ %11, %8 ], [ %.pre, %._crit_edge ]
  %storemerge = phi ptr [ @lxb_html_tokenizer_state_rcdata_end_tag_name, %8 ], [ @lxb_html_tokenizer_state_rcdata, %._crit_edge ]
  store ptr %storemerge, ptr %0, align 8
  %21 = getelementptr inbounds i8, ptr %0, i64 136
  %22 = getelementptr inbounds i8, ptr %20, i64 1
  %23 = getelementptr inbounds i8, ptr %0, i64 144
  %24 = load ptr, ptr %23, align 8
  %25 = icmp ugt ptr %22, %24
  br i1 %25, label %26, label %40

26:                                               ; preds = %19
  %27 = getelementptr inbounds i8, ptr %0, i64 128
  %28 = load ptr, ptr %27, align 8
  %29 = ptrtoint ptr %28 to i64
  %30 = ptrtoint ptr %24 to i64
  %31 = add i64 %30, 4097
  %32 = sub i64 %31, %29
  %33 = tail call ptr @lexbor_realloc(ptr noundef %28, i64 noundef %32) #6
  store ptr %33, ptr %27, align 8
  %34 = icmp eq ptr %33, null
  br i1 %34, label %lxb_html_tokenizer_temp_append.exit, label %lxb_html_tokenizer_temp_realloc.exit.thread.i

lxb_html_tokenizer_temp_realloc.exit.thread.i:    ; preds = %26
  %35 = ptrtoint ptr %20 to i64
  %36 = sub i64 %35, %29
  %37 = getelementptr inbounds i8, ptr %33, i64 %36
  %38 = getelementptr inbounds i8, ptr %33, i64 %32
  store ptr %38, ptr %23, align 8
  br label %40

lxb_html_tokenizer_temp_append.exit:              ; preds = %26
  %39 = getelementptr inbounds i8, ptr %0, i64 232
  store i32 2, ptr %39, align 8
  br label %43

40:                                               ; preds = %19, %lxb_html_tokenizer_temp_realloc.exit.thread.i
  %41 = phi ptr [ %37, %lxb_html_tokenizer_temp_realloc.exit.thread.i ], [ %20, %19 ]
  store i8 47, ptr %41, align 1
  %42 = getelementptr inbounds i8, ptr %41, i64 1
  store ptr %42, ptr %21, align 8
  br label %43

43:                                               ; preds = %lxb_html_tokenizer_temp_append.exit, %40
  %44 = phi ptr [ %1, %40 ], [ %2, %lxb_html_tokenizer_temp_append.exit ]
  ret ptr %44
}